target datalayout = "e-m:e-p270:32:32-p271:32:32-p272:64:64-i64:64-i128:128-f80:128-n8:16:32:64-S128"
target triple = "x86_64-pc-linux-gnu"

%struct.PROV_SM2_CTX = type { ptr, ptr, %struct.PROV_DIGEST }
%struct.PROV_DIGEST = type { ptr, ptr, ptr }

@.str.2 = private unnamed_addr constant [7 x i8] c"digest\00", align 1
@.str.3 = private unnamed_addr constant [1 x i8] zeroinitializer, align 1

; Function Attrs: nounwind uwtable
define internal i32 @sm2_get_ctx_params(ptr noundef %0, ptr noundef %1) #0 {
  %3 = alloca i32, align 4
  %4 = alloca ptr, align 8
  %5 = alloca ptr, align 8
  %6 = alloca ptr, align 8
  %7 = alloca ptr, align 8
  %8 = alloca i32, align 4
  %9 = alloca ptr, align 8
  store ptr %0, ptr %4, align 8, !tbaa !3
  store ptr %1, ptr %5, align 8, !tbaa !14
  call void @llvm.lifetime.start.p0(i64 8, ptr %6) #6
  %10 = load ptr, ptr %4, align 8, !tbaa !3
  store ptr %10, ptr %6, align 8, !tbaa !3
  call void @llvm.lifetime.start.p0(i64 8, ptr %7) #6
  %11 = load ptr, ptr %4, align 8, !tbaa !3
  %12 = icmp eq ptr %11, null
  br i1 %12, label %13, label %14

13:                                               ; preds = %2
  store i32 0, ptr %3, align 4
  store i32 1, ptr %8, align 4
  br label %40

14:                                               ; preds = %2
  %15 = load ptr, ptr %5, align 8, !tbaa !14
  %16 = call ptr @OSSL_PARAM_locate(ptr noundef %15, ptr noundef @.str.2)
  store ptr %16, ptr %7, align 8, !tbaa !14
  %17 = load ptr, ptr %7, align 8, !tbaa !14
  %18 = icmp ne ptr %17, null
  br i1 %18, label %19, label %39

19:                                               ; preds = %14
  call void @llvm.lifetime.start.p0(i64 8, ptr %9) #6
  %20 = load ptr, ptr %6, align 8, !tbaa !3
  %21 = getelementptr inbounds nuw %struct.PROV_SM2_CTX, ptr %20, i32 0, i32 2
  %22 = call ptr @ossl_prov_digest_md(ptr noundef %21)
  store ptr %22, ptr %9, align 8, !tbaa !23
  %23 = load ptr, ptr %7, align 8, !tbaa !14
  %24 = load ptr, ptr %9, align 8, !tbaa !23
  %25 = icmp eq ptr %24, null
  br i1 %25, label %26, label %27

26:                                               ; preds = %19
  br label %30

27:                                               ; preds = %19
  %28 = load ptr, ptr %9, align 8, !tbaa !23
  %29 = call ptr @EVP_MD_get0_name(ptr noundef %28)
  br label %30

30:                                               ; preds = %27, %26
  %31 = phi ptr [ @.str.3, %26 ], [ %29, %27 ]
  %32 = call i32 @OSSL_PARAM_set_utf8_string(ptr noundef %23, ptr noundef %31)
  %33 = icmp ne i32 %32, 0
  br i1 %33, label %35, label %34

34:                                               ; preds = %30
  store i32 0, ptr %3, align 4
  store i32 1, ptr %8, align 4
  br label %36

35:                                               ; preds = %30
  store i32 0, ptr %8, align 4
  br label %36

36:                                               ; preds = %35, %34
  call void @llvm.lifetime.end.p0(i64 8, ptr %9) #6
  %37 = load i32, ptr %8, align 4
  switch i32 %37, label %40 [
    i32 0, label %38
  ]

38:                                               ; preds = %36
  br label %39

39:                                               ; preds = %38, %14
  store i32 1, ptr %3, align 4
  store i32 1, ptr %8, align 4
  br label %40

40:                                               ; preds = %39, %36, %13
  call void @llvm.lifetime.end.p0(i64 8, ptr %7) #6
  call void @llvm.lifetime.end.p0(i64 8, ptr %6) #6
  %41 = load i32, ptr %3, align 4
  ret i32 %41
}