; Function Attrs: nounwind uwtable
define internal range(i32 0, 2) i32 @sm2_get_ctx_params(ptr noundef %0, ptr noundef %1) #0 {
  %3 = icmp eq ptr %0, null
  br i1 %3, label %16, label %4

4:                                                ; preds = %2
  %5 = tail call ptr @OSSL_PARAM_locate(ptr noundef %1, ptr noundef nonnull @.str.2) #5
  %.not = icmp eq ptr %5, null
  br i1 %.not, label %15, label %6

6:                                                ; preds = %4
  %7 = getelementptr inbounds nuw i8, ptr %0, i64 16
  %8 = tail call ptr @ossl_prov_digest_md(ptr noundef nonnull %7) #5
  %9 = icmp eq ptr %8, null
  br i1 %9, label %12, label %10

10:                                               ; preds = %6
  %11 = tail call ptr @EVP_MD_get0_name(ptr noundef nonnull %8) #5
  br label %12

12:                                               ; preds = %6, %10
  %13 = phi ptr [ %11, %10 ], [ @.str.3, %6 ]
  %14 = tail call i32 @OSSL_PARAM_set_utf8_string(ptr noundef nonnull %5, ptr noundef %13) #5
  %.not13.not = icmp eq i32 %14, 0
  br i1 %.not13.not, label %16, label %15

15:                                               ; preds = %12, %4
  br label %16

16:                                               ; preds = %2, %12, %15
  %.0 = phi i32 [ 1, %15 ], [ 0, %12 ], [ 0, %2 ]
  ret i32 %.0
}